target datalayout = "e-m:e-p270:32:32-p271:32:32-p272:64:64-i64:64-i128:128-f80:128-n8:16:32:64-S128"
target triple = "x86_64-pc-linux-gnu"

%struct.FunctionCallInfoBaseData = type { ptr, ptr, ptr, i32, i8, i16, [0 x %struct.NullableDatum] }
%struct.NullableDatum = type { i64, i8 }
%struct.varattrib_1b = type { i8, [0 x i8] }
%struct.anon = type { i32, [0 x i8] }
%struct.varattrib_1b_e = type { i8, i8, [0 x i8] }

; Function Attrs: inlinehint nounwind uwtable
define internal i64 @Int32GetDatum(i32 noundef %0) #3 {
  %2 = alloca i32, align 4
  store i32 %0, ptr %2, align 4
  %3 = load i32, ptr %2, align 4
  %4 = sext i32 %3 to i64
  ret i64 %4
}

; Function Attrs: inlinehint nounwind uwtable
define internal ptr @DatumGetPointer(i64 noundef %0) #3 {
  %2 = alloca i64, align 8
  store i64 %0, ptr %2, align 8
  %3 = load i64, ptr %2, align 8
  %4 = inttoptr i64 %3 to ptr
  ret ptr %4
}

; Function Attrs: nounwind uwtable
define dso_local i64 @gin_cmp_tslexeme(ptr noundef %0) #0 {
  %2 = alloca ptr, align 8
  %3 = alloca ptr, align 8
  %4 = alloca ptr, align 8
  %5 = alloca i32, align 4
  store ptr %0, ptr %2, align 8
  call void @llvm.lifetime.start.p0(i64 8, ptr %3) #5
  %6 = load ptr, ptr %2, align 8
  %7 = getelementptr inbounds nuw %struct.FunctionCallInfoBaseData, ptr %6, i32 0, i32 6
  %8 = getelementptr inbounds [0 x %struct.NullableDatum], ptr %7, i64 0, i64 0
  %9 = getelementptr inbounds nuw %struct.NullableDatum, ptr %8, i32 0, i32 0
  %10 = load i64, ptr %9, align 8
  %11 = call ptr @DatumGetPointer(i64 noundef %10)
  %12 = call ptr @pg_detoast_datum_packed(ptr noundef %11)
  store ptr %12, ptr %3, align 8
  call void @llvm.lifetime.start.p0(i64 8, ptr %4) #5
  %13 = load ptr, ptr %2, align 8
  %14 = getelementptr inbounds nuw %struct.FunctionCallInfoBaseData, ptr %13, i32 0, i32 6
  %15 = getelementptr inbounds [0 x %struct.NullableDatum], ptr %14, i64 0, i64 1
  %16 = getelementptr inbounds nuw %struct.NullableDatum, ptr %15, i32 0, i32 0
  %17 = load i64, ptr %16, align 8
  %18 = call ptr @DatumGetPointer(i64 noundef %17)
  %19 = call ptr @pg_detoast_datum_packed(ptr noundef %18)
  store ptr %19, ptr %4, align 8
  call void @llvm.lifetime.start.p0(i64 4, ptr %5) #5
  %20 = load ptr, ptr %3, align 8
  %21 = getelementptr inbounds nuw %struct.varattrib_1b, ptr %20, i32 0, i32 0
  %22 = load i8, ptr %21, align 1
  %23 = zext i8 %22 to i32
  %24 = and i32 %23, 1
  %25 = icmp eq i32 %24, 1
  br i1 %25, label %26, label %30

26:                                               ; preds = %1
  %27 = load ptr, ptr %3, align 8
  %28 = getelementptr inbounds nuw %struct.varattrib_1b, ptr %27, i32 0, i32 1
  %29 = getelementptr inbounds [0 x i8], ptr %28, i64 0, i64 0
  br label %34

30:                                               ; preds = %1
  %31 = load ptr, ptr %3, align 8
  %32 = getelementptr inbounds nuw %struct.anon, ptr %31, i32 0, i32 1
  %33 = getelementptr inbounds [0 x i8], ptr %32, i64 0, i64 0
  br label %34

34:                                               ; preds = %30, %26
  %35 = phi ptr [ %29, %26 ], [ %33, %30 ]
  %36 = load ptr, ptr %3, align 8
  %37 = getelementptr inbounds nuw %struct.varattrib_1b, ptr %36, i32 0, i32 0
  %38 = load i8, ptr %37, align 1
  %39 = zext i8 %38 to i32
  %40 = icmp eq i32 %39, 1
  br i1 %40, label %41, label %69

41:                                               ; preds = %34
  %42 = load ptr, ptr %3, align 8
  %43 = getelementptr inbounds nuw %struct.varattrib_1b_e, ptr %42, i32 0, i32 1
  %44 = load i8, ptr %43, align 1
  %45 = zext i8 %44 to i32
  %46 = icmp eq i32 %45, 1
  br i1 %46, label %47, label %48

47:                                               ; preds = %41
  br label %65

48:                                               ; preds = %41
  %49 = load ptr, ptr %3, align 8
  %50 = getelementptr inbounds nuw %struct.varattrib_1b_e, ptr %49, i32 0, i32 1
  %51 = load i8, ptr %50, align 1
  %52 = zext i8 %51 to i32
  %53 = and i32 %52, -2
  %54 = icmp eq i32 %53, 2
  br i1 %54, label %55, label %56

55:                                               ; preds = %48
  br label %63

56:                                               ; preds = %48
  %57 = load ptr, ptr %3, align 8
  %58 = getelementptr inbounds nuw %struct.varattrib_1b_e, ptr %57, i32 0, i32 1
  %59 = load i8, ptr %58, align 1
  %60 = zext i8 %59 to i32
  %61 = icmp eq i32 %60, 18
  %62 = select i1 %61, i64 16, i64 0
  br label %63

63:                                               ; preds = %56, %55
  %64 = phi i64 [ 8, %55 ], [ %62, %56 ]
  br label %65

65:                                               ; preds = %63, %47
  %66 = phi i64 [ 8, %47 ], [ %64, %63 ]
  %67 = add i64 2, %66
  %68 = sub i64 %67, 2
  br label %95

69:                                               ; preds = %34
  %70 = load ptr, ptr %3, align 8
  %71 = getelementptr inbounds nuw %struct.varattrib_1b, ptr %70, i32 0, i32 0
  %72 = load i8, ptr %71, align 1
  %73 = zext i8 %72 to i32
  %74 = and i32 %73, 1
  %75 = icmp eq i32 %74, 1
  br i1 %75, label %76, label %85

76:                                               ; preds = %69
  %77 = load ptr, ptr %3, align 8
  %78 = getelementptr inbounds nuw %struct.varattrib_1b, ptr %77, i32 0, i32 0
  %79 = load i8, ptr %78, align 1
  %80 = zext i8 %79 to i32
  %81 = ashr i32 %80, 1
  %82 = and i32 %81, 127
  %83 = sext i32 %82 to i64
  %84 = sub i64 %83, 1
  br label %93

85:                                               ; preds = %69
  %86 = load ptr, ptr %3, align 8
  %87 = getelementptr inbounds nuw %struct.anon, ptr %86, i32 0, i32 0
  %88 = load i32, ptr %87, align 4
  %89 = lshr i32 %88, 2
  %90 = and i32 %89, 1073741823
  %91 = sub i32 %90, 4
  %92 = zext i32 %91 to i64
  br label %93

93:                                               ; preds = %85, %76
  %94 = phi i64 [ %84, %76 ], [ %92, %85 ]
  br label %95

95:                                               ; preds = %93, %65
  %96 = phi i64 [ %68, %65 ], [ %94, %93 ]
  %97 = trunc i64 %96 to i32
  %98 = load ptr, ptr %4, align 8
  %99 = getelementptr inbounds nuw %struct.varattrib_1b, ptr %98, i32 0, i32 0
  %100 = load i8, ptr %99, align 1
  %101 = zext i8 %100 to i32
  %102 = and i32 %101, 1
  %103 = icmp eq i32 %102, 1
  br i1 %103, label %104, label %108

104:                                              ; preds = %95
  %105 = load ptr, ptr %4, align 8
  %106 = getelementptr inbounds nuw %struct.varattrib_1b, ptr %105, i32 0, i32 1
  %107 = getelementptr inbounds [0 x i8], ptr %106, i64 0, i64 0
  br label %112

108:                                              ; preds = %95
  %109 = load ptr, ptr %4, align 8
  %110 = getelementptr inbounds nuw %struct.anon, ptr %109, i32 0, i32 1
  %111 = getelementptr inbounds [0 x i8], ptr %110, i64 0, i64 0
  br label %112

112:                                              ; preds = %108, %104
  %113 = phi ptr [ %107, %104 ], [ %111, %108 ]
  %114 = load ptr, ptr %4, align 8
  %115 = getelementptr inbounds nuw %struct.varattrib_1b, ptr %114, i32 0, i32 0
  %116 = load i8, ptr %115, align 1
  %117 = zext i8 %116 to i32
  %118 = icmp eq i32 %117, 1
  br i1 %118, label %119, label %147

119:                                              ; preds = %112
  %120 = load ptr, ptr %4, align 8
  %121 = getelementptr inbounds nuw %struct.varattrib_1b_e, ptr %120, i32 0, i32 1
  %122 = load i8, ptr %121, align 1
  %123 = zext i8 %122 to i32
  %124 = icmp eq i32 %123, 1
  br i1 %124, label %125, label %126

125:                                              ; preds = %119
  br label %143

126:                                              ; preds = %119
  %127 = load ptr, ptr %4, align 8
  %128 = getelementptr inbounds nuw %struct.varattrib_1b_e, ptr %127, i32 0, i32 1
  %129 = load i8, ptr %128, align 1
  %130 = zext i8 %129 to i32
  %131 = and i32 %130, -2
  %132 = icmp eq i32 %131, 2
  br i1 %132, label %133, label %134

133:                                              ; preds = %126
  br label %141

134:                                              ; preds = %126
  %135 = load ptr, ptr %4, align 8
  %136 = getelementptr inbounds nuw %struct.varattrib_1b_e, ptr %135, i32 0, i32 1
  %137 = load i8, ptr %136, align 1
  %138 = zext i8 %137 to i32
  %139 = icmp eq i32 %138, 18
  %140 = select i1 %139, i64 16, i64 0
  br label %141

141:                                              ; preds = %134, %133
  %142 = phi i64 [ 8, %133 ], [ %140, %134 ]
  br label %143

143:                                              ; preds = %141, %125
  %144 = phi i64 [ 8, %125 ], [ %142, %141 ]
  %145 = add i64 2, %144
  %146 = sub i64 %145, 2
  br label %173

147:                                              ; preds = %112
  %148 = load ptr, ptr %4, align 8
  %149 = getelementptr inbounds nuw %struct.varattrib_1b, ptr %148, i32 0, i32 0
  %150 = load i8, ptr %149, align 1
  %151 = zext i8 %150 to i32
  %152 = and i32 %151, 1
  %153 = icmp eq i32 %152, 1
  br i1 %153, label %154, label %163

154:                                              ; preds = %147
  %155 = load ptr, ptr %4, align 8
  %156 = getelementptr inbounds nuw %struct.varattrib_1b, ptr %155, i32 0, i32 0
  %157 = load i8, ptr %156, align 1
  %158 = zext i8 %157 to i32
  %159 = ashr i32 %158, 1
  %160 = and i32 %159, 127
  %161 = sext i32 %160 to i64
  %162 = sub i64 %161, 1
  br label %171

163:                                              ; preds = %147
  %164 = load ptr, ptr %4, align 8
  %165 = getelementptr inbounds nuw %struct.anon, ptr %164, i32 0, i32 0
  %166 = load i32, ptr %165, align 4
  %167 = lshr i32 %166, 2
  %168 = and i32 %167, 1073741823
  %169 = sub i32 %168, 4
  %170 = zext i32 %169 to i64
  br label %171

171:                                              ; preds = %163, %154
  %172 = phi i64 [ %162, %154 ], [ %170, %163 ]
  br label %173

173:                                              ; preds = %171, %143
  %174 = phi i64 [ %146, %143 ], [ %172, %171 ]
  %175 = trunc i64 %174 to i32
  %176 = call i32 @tsCompareString(ptr noundef %35, i32 noundef %97, ptr noundef %113, i32 noundef %175, i1 noundef zeroext false)
  store i32 %176, ptr %5, align 4
  br label %177

177:                                              ; preds = %173
  %178 = load ptr, ptr %3, align 8
  %179 = load ptr, ptr %2, align 8
  %180 = getelementptr inbounds nuw %struct.FunctionCallInfoBaseData, ptr %179, i32 0, i32 6
  %181 = getelementptr inbounds [0 x %struct.NullableDatum], ptr %180, i64 0, i64 0
  %182 = getelementptr inbounds nuw %struct.NullableDatum, ptr %181, i32 0, i32 0
  %183 = load i64, ptr %182, align 8
  %184 = call ptr @DatumGetPointer(i64 noundef %183)
  %185 = icmp ne ptr %178, %184
  br i1 %185, label %186, label %188

186:                                              ; preds = %177
  %187 = load ptr, ptr %3, align 8
  call void @pfree(ptr noundef %187)
  br label %188

188:                                              ; preds = %186, %177
  br label %189

189:                                              ; preds = %188
  br label %190

190:                                              ; preds = %189
  br label %191

191:                                              ; preds = %190
  %192 = load ptr, ptr %4, align 8
  %193 = load ptr, ptr %2, align 8
  %194 = getelementptr inbounds nuw %struct.FunctionCallInfoBaseData, ptr %193, i32 0, i32 6
  %195 = getelementptr inbounds [0 x %struct.NullableDatum], ptr %194, i64 0, i64 1
  %196 = getelementptr inbounds nuw %struct.NullableDatum, ptr %195, i32 0, i32 0
  %197 = load i64, ptr %196, align 8
  %198 = call ptr @DatumGetPointer(i64 noundef %197)
  %199 = icmp ne ptr %192, %198
  br i1 %199, label %200, label %202

200:                                              ; preds = %191
  %201 = load ptr, ptr %4, align 8
  call void @pfree(ptr noundef %201)
  br label %202

202:                                              ; preds = %200, %191
  br label %203

203:                                              ; preds = %202
  br label %204

204:                                              ; preds = %203
  %205 = load i32, ptr %5, align 4
  %206 = call i64 @Int32GetDatum(i32 noundef %205)
  call void @llvm.lifetime.end.p0(i64 4, ptr %5) #5
  call void @llvm.lifetime.end.p0(i64 8, ptr %4) #5
  call void @llvm.lifetime.end.p0(i64 8, ptr %3) #5
  ret i64 %206
}