; Function Attrs: nounwind uwtable
define dso_local range(i64 -2147483648, 2147483648) i64 @gin_cmp_tslexeme(ptr noundef readonly captures(none) %0) local_unnamed_addr #0 {
  %2 = getelementptr inbounds nuw i8, ptr %0, i64 32
  %3 = load i64, ptr %2, align 8
  %4 = inttoptr i64 %3 to ptr
  %5 = tail call ptr @pg_detoast_datum_packed(ptr noundef %4) #6
  %6 = getelementptr inbounds nuw i8, ptr %0, i64 48
  %7 = load i64, ptr %6, align 8
  %8 = inttoptr i64 %7 to ptr
  %9 = tail call ptr @pg_detoast_datum_packed(ptr noundef %8) #6
  %10 = load i8, ptr %5, align 1
  %11 = zext i8 %10 to i32
  %12 = and i32 %11, 1
  %.not = icmp eq i32 %12, 0
  %13 = getelementptr inbounds nuw i8, ptr %5, i64 1
  %14 = getelementptr inbounds nuw i8, ptr %5, i64 4
  %15 = select i1 %.not, ptr %14, ptr %13
  %16 = icmp eq i8 %10, 1
  br i1 %16, label %17, label %25

17:                                               ; preds = %1
  %18 = load i8, ptr %13, align 1
  %19 = icmp eq i8 %18, 1
  %20 = and i8 %18, -2
  %21 = icmp eq i8 %20, 2
  %or.cond = or i1 %19, %21
  %22 = icmp eq i8 %18, 18
  %23 = select i1 %22, i32 16, i32 0
  %24 = select i1 %or.cond, i32 8, i32 %23
  br label %33

25:                                               ; preds = %1
  br i1 %.not, label %29, label %26

26:                                               ; preds = %25
  %27 = lshr i32 %11, 1
  %28 = add nsw i32 %27, -1
  br label %33

29:                                               ; preds = %25
  %30 = load i32, ptr %5, align 4
  %31 = lshr i32 %30, 2
  %32 = add nsw i32 %31, -4
  br label %33

33:                                               ; preds = %26, %29, %17
  %34 = phi i32 [ %24, %17 ], [ %28, %26 ], [ %32, %29 ]
  %35 = load i8, ptr %9, align 1
  %36 = zext i8 %35 to i32
  %37 = and i32 %36, 1
  %.not33 = icmp eq i32 %37, 0
  %38 = getelementptr inbounds nuw i8, ptr %9, i64 1
  %39 = getelementptr inbounds nuw i8, ptr %9, i64 4
  %40 = select i1 %.not33, ptr %39, ptr %38
  %41 = icmp eq i8 %35, 1
  br i1 %41, label %42, label %50

42:                                               ; preds = %33
  %43 = load i8, ptr %38, align 1
  %44 = icmp eq i8 %43, 1
  %45 = and i8 %43, -2
  %46 = icmp eq i8 %45, 2
  %or.cond38 = or i1 %44, %46
  %47 = icmp eq i8 %43, 18
  %48 = select i1 %47, i32 16, i32 0
  %49 = select i1 %or.cond38, i32 8, i32 %48
  br label %58

50:                                               ; preds = %33
  br i1 %.not33, label %54, label %51

51:                                               ; preds = %50
  %52 = lshr i32 %36, 1
  %53 = add nsw i32 %52, -1
  br label %58

54:                                               ; preds = %50
  %55 = load i32, ptr %9, align 4
  %56 = lshr i32 %55, 2
  %57 = add nsw i32 %56, -4
  br label %58

58:                                               ; preds = %51, %54, %42
  %59 = phi i32 [ %49, %42 ], [ %53, %51 ], [ %57, %54 ]
  %60 = tail call i32 @tsCompareString(ptr noundef nonnull %15, i32 noundef %34, ptr noundef nonnull %40, i32 noundef %59, i1 noundef zeroext false) #6
  %61 = load i64, ptr %2, align 8
  %62 = inttoptr i64 %61 to ptr
  %.not34 = icmp eq ptr %5, %62
  br i1 %.not34, label %64, label %63

63:                                               ; preds = %58
  tail call void @pfree(ptr noundef nonnull %5) #6
  br label %64

64:                                               ; preds = %58, %63
  %65 = load i64, ptr %6, align 8
  %66 = inttoptr i64 %65 to ptr
  %.not35 = icmp eq ptr %9, %66
  br i1 %.not35, label %68, label %67

67:                                               ; preds = %64
  tail call void @pfree(ptr noundef nonnull %9) #6
  br label %68

68:                                               ; preds = %67, %64
  %69 = sext i32 %60 to i64
  ret i64 %69
}